target datalayout = "e-m:e-p270:32:32-p271:32:32-p272:64:64-i64:64-i128:128-f80:128-n8:16:32:64-S128"
target triple = "x86_64-pc-linux-gnu"

%struct.dt_s_ = type { ptr, ptr, %struct.Dtdata_t, ptr, i32, ptr, ptr, ptr }
%struct.Dtdata_t = type { i32, ptr, %union.anon, i32, i32, i32 }
%union.anon = type { ptr }
%struct.dtlink_s_ = type { ptr, %union.anon.0 }
%union.anon.0 = type { ptr }

; Function Attrs: nounwind uwtable
define internal void @dthtab(ptr noundef %0) #0 {
  %2 = alloca ptr, align 8
  %3 = alloca ptr, align 8
  %4 = alloca ptr, align 8
  %5 = alloca ptr, align 8
  %6 = alloca ptr, align 8
  %7 = alloca ptr, align 8
  %8 = alloca ptr, align 8
  %9 = alloca ptr, align 8
  %10 = alloca i32, align 4
  %11 = alloca i32, align 4
  store ptr %0, ptr %2, align 8, !tbaa !3
  call void @llvm.lifetime.start.p0(i64 8, ptr %3) #7
  call void @llvm.lifetime.start.p0(i64 8, ptr %4) #7
  call void @llvm.lifetime.start.p0(i64 8, ptr %5) #7
  call void @llvm.lifetime.start.p0(i64 8, ptr %6) #7
  call void @llvm.lifetime.start.p0(i64 8, ptr %7) #7
  call void @llvm.lifetime.start.p0(i64 8, ptr %8) #7
  call void @llvm.lifetime.start.p0(i64 8, ptr %9) #7
  call void @llvm.lifetime.start.p0(i64 4, ptr %10) #7
  %12 = load ptr, ptr %2, align 8, !tbaa !3
  %13 = getelementptr inbounds nuw %struct.dt_s_, ptr %12, i32 0, i32 2
  %14 = getelementptr inbounds nuw %struct.Dtdata_t, ptr %13, i32 0, i32 3
  %15 = load i32, ptr %14, align 8, !tbaa !28
  store i32 %15, ptr %10, align 4, !tbaa !9
  %16 = icmp eq i32 %15, 0
  br i1 %16, label %17, label %18

17:                                               ; preds = %1
  store i32 256, ptr %10, align 4, !tbaa !9
  br label %18

18:                                               ; preds = %17, %1
  br label %19

19:                                               ; preds = %27, %18
  %20 = load ptr, ptr %2, align 8, !tbaa !3
  %21 = getelementptr inbounds nuw %struct.dt_s_, ptr %20, i32 0, i32 2
  %22 = getelementptr inbounds nuw %struct.Dtdata_t, ptr %21, i32 0, i32 4
  %23 = load i32, ptr %22, align 4, !tbaa !26
  %24 = load i32, ptr %10, align 4, !tbaa !9
  %25 = shl i32 %24, 1
  %26 = icmp sgt i32 %23, %25
  br i1 %26, label %27, label %30

27:                                               ; preds = %19
  %28 = load i32, ptr %10, align 4, !tbaa !9
  %29 = shl i32 %28, 1
  store i32 %29, ptr %10, align 4, !tbaa !9
  br label %19, !llvm.loop !50

30:                                               ; preds = %19
  %31 = load i32, ptr %10, align 4, !tbaa !9
  %32 = load ptr, ptr %2, align 8, !tbaa !3
  %33 = getelementptr inbounds nuw %struct.dt_s_, ptr %32, i32 0, i32 2
  %34 = getelementptr inbounds nuw %struct.Dtdata_t, ptr %33, i32 0, i32 3
  %35 = load i32, ptr %34, align 8, !tbaa !28
  %36 = icmp eq i32 %31, %35
  br i1 %36, label %37, label %38

37:                                               ; preds = %30
  store i32 1, ptr %11, align 4
  br label %143

38:                                               ; preds = %30
  %39 = load ptr, ptr %2, align 8, !tbaa !3
  %40 = getelementptr inbounds nuw %struct.dt_s_, ptr %39, i32 0, i32 2
  %41 = getelementptr inbounds nuw %struct.Dtdata_t, ptr %40, i32 0, i32 3
  %42 = load i32, ptr %41, align 8, !tbaa !28
  %43 = icmp eq i32 %42, 0
  br i1 %43, label %44, label %45

44:                                               ; preds = %38
  br label %50

45:                                               ; preds = %38
  %46 = load ptr, ptr %2, align 8, !tbaa !3
  %47 = getelementptr inbounds nuw %struct.dt_s_, ptr %46, i32 0, i32 2
  %48 = getelementptr inbounds nuw %struct.Dtdata_t, ptr %47, i32 0, i32 2
  %49 = load ptr, ptr %48, align 8, !tbaa !27
  br label %50

50:                                               ; preds = %45, %44
  %51 = phi ptr [ null, %44 ], [ %49, %45 ]
  store ptr %51, ptr %9, align 8, !tbaa !13
  %52 = load ptr, ptr %9, align 8, !tbaa !13
  %53 = load i32, ptr %10, align 4, !tbaa !9
  %54 = sext i32 %53 to i64
  %55 = mul i64 %54, 8
  %56 = call ptr @realloc(ptr noundef %52, i64 noundef %55) #10
  store ptr %56, ptr %6, align 8, !tbaa !13
  %57 = icmp ne ptr %56, null
  br i1 %57, label %59, label %58

58:                                               ; preds = %50
  store i32 1, ptr %11, align 4
  br label %143

59:                                               ; preds = %50
  %60 = load ptr, ptr %6, align 8, !tbaa !13
  %61 = load ptr, ptr %2, align 8, !tbaa !3
  %62 = getelementptr inbounds nuw %struct.dt_s_, ptr %61, i32 0, i32 2
  %63 = getelementptr inbounds nuw %struct.Dtdata_t, ptr %62, i32 0, i32 3
  %64 = load i32, ptr %63, align 8, !tbaa !28
  %65 = sext i32 %64 to i64
  %66 = getelementptr inbounds ptr, ptr %60, i64 %65
  store ptr %66, ptr %9, align 8, !tbaa !13
  %67 = load ptr, ptr %6, align 8, !tbaa !13
  %68 = load ptr, ptr %2, align 8, !tbaa !3
  %69 = getelementptr inbounds nuw %struct.dt_s_, ptr %68, i32 0, i32 2
  %70 = getelementptr inbounds nuw %struct.Dtdata_t, ptr %69, i32 0, i32 2
  store ptr %67, ptr %70, align 8, !tbaa !27
  %71 = load i32, ptr %10, align 4, !tbaa !9
  %72 = load ptr, ptr %2, align 8, !tbaa !3
  %73 = getelementptr inbounds nuw %struct.dt_s_, ptr %72, i32 0, i32 2
  %74 = getelementptr inbounds nuw %struct.Dtdata_t, ptr %73, i32 0, i32 3
  store i32 %71, ptr %74, align 8, !tbaa !28
  %75 = load ptr, ptr %6, align 8, !tbaa !13
  %76 = load i32, ptr %10, align 4, !tbaa !9
  %77 = sext i32 %76 to i64
  %78 = getelementptr inbounds ptr, ptr %75, i64 %77
  %79 = getelementptr inbounds ptr, ptr %78, i64 -1
  store ptr %79, ptr %7, align 8, !tbaa !13
  br label %80

80:                                               ; preds = %86, %59
  %81 = load ptr, ptr %7, align 8, !tbaa !13
  %82 = load ptr, ptr %9, align 8, !tbaa !13
  %83 = icmp uge ptr %81, %82
  br i1 %83, label %84, label %89

84:                                               ; preds = %80
  %85 = load ptr, ptr %7, align 8, !tbaa !13
  store ptr null, ptr %85, align 8, !tbaa !11
  br label %86

86:                                               ; preds = %84
  %87 = load ptr, ptr %7, align 8, !tbaa !13
  %88 = getelementptr inbounds ptr, ptr %87, i32 -1
  store ptr %88, ptr %7, align 8, !tbaa !13
  br label %80, !llvm.loop !51

89:                                               ; preds = %80
  %90 = load ptr, ptr %6, align 8, !tbaa !13
  store ptr %90, ptr %7, align 8, !tbaa !13
  br label %91

91:                                               ; preds = %139, %89
  %92 = load ptr, ptr %7, align 8, !tbaa !13
  %93 = load ptr, ptr %9, align 8, !tbaa !13
  %94 = icmp ult ptr %92, %93
  br i1 %94, label %95, label %142

95:                                               ; preds = %91
  store ptr null, ptr %5, align 8, !tbaa !11
  %96 = load ptr, ptr %7, align 8, !tbaa !13
  %97 = load ptr, ptr %96, align 8, !tbaa !11
  store ptr %97, ptr %3, align 8, !tbaa !11
  br label %98

98:                                               ; preds = %136, %95
  %99 = load ptr, ptr %3, align 8, !tbaa !11
  %100 = icmp ne ptr %99, null
  br i1 %100, label %101, label %138

101:                                              ; preds = %98
  %102 = load ptr, ptr %3, align 8, !tbaa !11
  %103 = getelementptr inbounds nuw %struct.dtlink_s_, ptr %102, i32 0, i32 0
  %104 = load ptr, ptr %103, align 8, !tbaa !30
  store ptr %104, ptr %4, align 8, !tbaa !11
  %105 = load ptr, ptr %6, align 8, !tbaa !13
  %106 = load ptr, ptr %3, align 8, !tbaa !11
  %107 = getelementptr inbounds nuw %struct.dtlink_s_, ptr %106, i32 0, i32 1
  %108 = load i32, ptr %107, align 8, !tbaa !27
  %109 = load i32, ptr %10, align 4, !tbaa !9
  %110 = sub nsw i32 %109, 1
  %111 = and i32 %108, %110
  %112 = zext i32 %111 to i64
  %113 = getelementptr inbounds nuw ptr, ptr %105, i64 %112
  store ptr %113, ptr %8, align 8, !tbaa !13
  %114 = load ptr, ptr %7, align 8, !tbaa !13
  %115 = icmp eq ptr %113, %114
  br i1 %115, label %116, label %118

116:                                              ; preds = %101
  %117 = load ptr, ptr %3, align 8, !tbaa !11
  store ptr %117, ptr %5, align 8, !tbaa !11
  br label %135

118:                                              ; preds = %101
  %119 = load ptr, ptr %5, align 8, !tbaa !11
  %120 = icmp ne ptr %119, null
  br i1 %120, label %121, label %125

121:                                              ; preds = %118
  %122 = load ptr, ptr %4, align 8, !tbaa !11
  %123 = load ptr, ptr %5, align 8, !tbaa !11
  %124 = getelementptr inbounds nuw %struct.dtlink_s_, ptr %123, i32 0, i32 0
  store ptr %122, ptr %124, align 8, !tbaa !30
  br label %128

125:                                              ; preds = %118
  %126 = load ptr, ptr %4, align 8, !tbaa !11
  %127 = load ptr, ptr %7, align 8, !tbaa !13
  store ptr %126, ptr %127, align 8, !tbaa !11
  br label %128

128:                                              ; preds = %125, %121
  %129 = load ptr, ptr %8, align 8, !tbaa !13
  %130 = load ptr, ptr %129, align 8, !tbaa !11
  %131 = load ptr, ptr %3, align 8, !tbaa !11
  %132 = getelementptr inbounds nuw %struct.dtlink_s_, ptr %131, i32 0, i32 0
  store ptr %130, ptr %132, align 8, !tbaa !30
  %133 = load ptr, ptr %3, align 8, !tbaa !11
  %134 = load ptr, ptr %8, align 8, !tbaa !13
  store ptr %133, ptr %134, align 8, !tbaa !11
  br label %135

135:                                              ; preds = %128, %116
  br label %136

136:                                              ; preds = %135
  %137 = load ptr, ptr %4, align 8, !tbaa !11
  store ptr %137, ptr %3, align 8, !tbaa !11
  br label %98, !llvm.loop !52

138:                                              ; preds = %98
  br label %139

139:                                              ; preds = %138
  %140 = load ptr, ptr %7, align 8, !tbaa !13
  %141 = getelementptr inbounds nuw ptr, ptr %140, i32 1
  store ptr %141, ptr %7, align 8, !tbaa !13
  br label %91, !llvm.loop !53

142:                                              ; preds = %91
  store i32 0, ptr %11, align 4
  br label %143

143:                                              ; preds = %142, %58, %37
  call void @llvm.lifetime.end.p0(i64 4, ptr %10) #7
  call void @llvm.lifetime.end.p0(i64 8, ptr %9) #7
  call void @llvm.lifetime.end.p0(i64 8, ptr %8) #7
  call void @llvm.lifetime.end.p0(i64 8, ptr %7) #7
  call void @llvm.lifetime.end.p0(i64 8, ptr %6) #7
  call void @llvm.lifetime.end.p0(i64 8, ptr %5) #7
  call void @llvm.lifetime.end.p0(i64 8, ptr %4) #7
  call void @llvm.lifetime.end.p0(i64 8, ptr %3) #7
  %144 = load i32, ptr %11, align 4
  switch i32 %144, label %146 [
    i32 0, label %145
    i32 1, label %145
  ]

145:                                              ; preds = %143, %143
  ret void

146:                                              ; preds = %143
  unreachable
}