; Function Attrs: nounwind uwtable
define internal fastcc void @dthtab(ptr noundef captures(none) %0) unnamed_addr #0 {
  %2 = getelementptr inbounds nuw i8, ptr %0, i64 40
  %3 = load i32, ptr %2, align 8, !tbaa !21
  %4 = icmp eq i32 %3, 0
  %spec.store.select = select i1 %4, i32 256, i32 %3
  %5 = getelementptr inbounds nuw i8, ptr %0, i64 44
  %6 = load i32, ptr %5, align 4, !tbaa !19
  br label %7

7:                                                ; preds = %7, %1
  %.0 = phi i32 [ %spec.store.select, %1 ], [ %8, %7 ]
  %8 = shl i32 %.0, 1
  %9 = icmp sgt i32 %6, %8
  br i1 %9, label %7, label %10, !llvm.loop !43

10:                                               ; preds = %7
  %11 = icmp eq i32 %.0, %3
  br i1 %11, label %.loopexit, label %12

12:                                               ; preds = %10
  br i1 %4, label %16, label %13

13:                                               ; preds = %12
  %14 = getelementptr inbounds nuw i8, ptr %0, i64 32
  %15 = load ptr, ptr %14, align 8, !tbaa !20
  br label %16

16:                                               ; preds = %12, %13
  %17 = phi ptr [ %15, %13 ], [ null, %12 ]
  %18 = sext i32 %.0 to i64
  %19 = shl nsw i64 %18, 3
  %20 = tail call ptr @realloc(ptr noundef %17, i64 noundef %19) #10
  %.not = icmp eq ptr %20, null
  br i1 %.not, label %.loopexit, label %21

21:                                               ; preds = %16
  %22 = load i32, ptr %2, align 8, !tbaa !21
  %23 = sext i32 %22 to i64
  %24 = getelementptr inbounds ptr, ptr %20, i64 %23
  %25 = getelementptr inbounds nuw i8, ptr %0, i64 32
  store ptr %20, ptr %25, align 8, !tbaa !20
  store i32 %.0, ptr %2, align 8, !tbaa !21
  %26 = getelementptr inbounds ptr, ptr %20, i64 %18
  %.04455 = getelementptr inbounds i8, ptr %26, i64 -8
  %.not5256 = icmp ult ptr %.04455, %24
  br i1 %.not5256, label %.preheader, label %.lr.ph

.preheader:                                       ; preds = %.lr.ph, %21
  %27 = icmp sgt i32 %22, 0
  br i1 %27, label %.lr.ph63, label %.loopexit

.lr.ph63:                                         ; preds = %.preheader
  %28 = add nsw i32 %.0, -1
  br label %29

.lr.ph:                                           ; preds = %21, %.lr.ph
  %.04457 = phi ptr [ %.044, %.lr.ph ], [ %.04455, %21 ]
  store ptr null, ptr %.04457, align 8, !tbaa !22
  %.044 = getelementptr inbounds i8, ptr %.04457, i64 -8
  %.not52 = icmp ult ptr %.044, %24
  br i1 %.not52, label %.preheader, label %.lr.ph, !llvm.loop !44

29:                                               ; preds = %.lr.ph63, %._crit_edge
  %.162 = phi ptr [ %20, %.lr.ph63 ], [ %41, %._crit_edge ]
  %30 = load ptr, ptr %.162, align 8, !tbaa !22
  %.not5358 = icmp eq ptr %30, null
  br i1 %.not5358, label %._crit_edge, label %.lr.ph61

.lr.ph61:                                         ; preds = %29, %40
  %.04360 = phi ptr [ %31, %40 ], [ %30, %29 ]
  %.04559 = phi ptr [ %.146, %40 ], [ null, %29 ]
  %31 = load ptr, ptr %.04360, align 8, !tbaa !26
  %32 = getelementptr inbounds nuw i8, ptr %.04360, i64 8
  %33 = load i32, ptr %32, align 8, !tbaa !20
  %34 = and i32 %33, %28
  %35 = zext i32 %34 to i64
  %36 = getelementptr inbounds nuw ptr, ptr %20, i64 %35
  %37 = icmp eq ptr %36, %.162
  br i1 %37, label %40, label %38

38:                                               ; preds = %.lr.ph61
  %.not54 = icmp eq ptr %.04559, null
  %.162..04559 = select i1 %.not54, ptr %.162, ptr %.04559
  store ptr %31, ptr %.162..04559, align 8, !tbaa !22
  %39 = load ptr, ptr %36, align 8, !tbaa !22
  store ptr %39, ptr %.04360, align 8, !tbaa !26
  store ptr %.04360, ptr %36, align 8, !tbaa !22
  br label %40

40:                                               ; preds = %.lr.ph61, %38
  %.146 = phi ptr [ %.04559, %38 ], [ %.04360, %.lr.ph61 ]
  %.not53 = icmp eq ptr %31, null
  br i1 %.not53, label %._crit_edge, label %.lr.ph61, !llvm.loop !45

._crit_edge:                                      ; preds = %40, %29
  %41 = getelementptr inbounds nuw i8, ptr %.162, i64 8
  %42 = icmp ult ptr %41, %24
  br i1 %42, label %29, label %.loopexit, !llvm.loop !46

.loopexit:                                        ; preds = %._crit_edge, %.preheader, %16, %10
  ret void
}